target datalayout = "e-m:e-p270:32:32-p271:32:32-p272:64:64-i64:64-i128:128-f80:128-n8:16:32:64-S128"
target triple = "x86_64-pc-linux-gnu"

%union.pthread_mutex_t = type { %struct.__pthread_mutex_s }
%struct.__pthread_mutex_s = type { i32, i32, i32, i32, i32, i16, i16, %struct.__pthread_internal_list }
%struct.__pthread_internal_list = type { ptr, ptr }
%struct.itemstats_t = type { i64, i64, i64, i64, i64, i64, i64, i64, i64, i64, i64, i64, i64, i64, i64, i64, i64, i64, i64, i64, i32 }
%struct.settings = type { i64, i32, i32, i32, ptr, i32, i32, i32, ptr, ptr, i32, double, i32, i32, i32, i8, i32, i32, i8, i32, i32, i32, i32, i32, i32, i8, i8, i8, i8, i8, i8, i8, i32, i32, double, double, i32, i32, i8, i32, i8, i8, ptr, i32, i32, i32, i32, double, double, i32, i8, i32, i32, i32, i32, i32, i8, i8, i8, ptr, i32, i32, i32, i32, i32, i32, i32, i32, i32, i32, double, i8, i32, i32, ptr, i32 }

@lru_locks = external global [256 x %union.pthread_mutex_t], align 16
@itemstats = internal global [256 x %struct.itemstats_t] zeroinitializer, align 16
@settings = external global %struct.settings, align 8

; Function Attrs: nounwind uwtable
define dso_local ptr @do_item_alloc_pull(i64 noundef %0, i32 noundef %1) #0 {
  %3 = alloca i64, align 8
  %4 = alloca i32, align 4
  %5 = alloca ptr, align 8
  %6 = alloca i32, align 4
  store i64 %0, ptr %3, align 8, !tbaa !10
  store i32 %1, ptr %4, align 4, !tbaa !4
  call void @llvm.lifetime.start.p0(i64 8, ptr %5) #9
  store ptr null, ptr %5, align 8, !tbaa !16
  call void @llvm.lifetime.start.p0(i64 4, ptr %6) #9
  store i32 0, ptr %6, align 4, !tbaa !4
  br label %7

7:                                                ; preds = %36, %2
  %8 = load i32, ptr %6, align 4, !tbaa !4
  %9 = icmp slt i32 %8, 10
  br i1 %9, label %10, label %39

10:                                               ; preds = %7
  %11 = load i8, ptr getelementptr inbounds nuw (%struct.settings, ptr @settings, i32 0, i32 29), align 8, !tbaa !25, !range !26, !noundef !27
  %12 = trunc i8 %11 to i1
  br i1 %12, label %16, label %13

13:                                               ; preds = %10
  %14 = load i32, ptr %4, align 4, !tbaa !4
  %15 = call i32 @lru_pull_tail(i32 noundef %14, i32 noundef 128, i64 noundef 0, i8 noundef zeroext 0, i32 noundef 0, ptr noundef null)
  br label %16

16:                                               ; preds = %13, %10
  %17 = load i32, ptr %4, align 4, !tbaa !4
  %18 = call ptr @slabs_alloc(i32 noundef %17, i32 noundef 0)
  store ptr %18, ptr %5, align 8, !tbaa !16
  %19 = load ptr, ptr %5, align 8, !tbaa !16
  %20 = icmp eq ptr %19, null
  br i1 %20, label %21, label %34

21:                                               ; preds = %16
  %22 = load i32, ptr %4, align 4, !tbaa !4
  %23 = call i32 @lru_pull_tail(i32 noundef %22, i32 noundef 128, i64 noundef 0, i8 noundef zeroext 1, i32 noundef 0, ptr noundef null)
  %24 = icmp sle i32 %23, 0
  br i1 %24, label %25, label %33

25:                                               ; preds = %21
  %26 = load i8, ptr getelementptr inbounds nuw (%struct.settings, ptr @settings, i32 0, i32 29), align 8, !tbaa !25, !range !26, !noundef !27
  %27 = trunc i8 %26 to i1
  br i1 %27, label %28, label %31

28:                                               ; preds = %25
  %29 = load i32, ptr %4, align 4, !tbaa !4
  %30 = call i32 @lru_pull_tail(i32 noundef %29, i32 noundef 0, i64 noundef 0, i8 noundef zeroext 0, i32 noundef 0, ptr noundef null)
  br label %32

31:                                               ; preds = %25
  br label %39

32:                                               ; preds = %28
  br label %33

33:                                               ; preds = %32, %21
  br label %35

34:                                               ; preds = %16
  br label %39

35:                                               ; preds = %33
  br label %36

36:                                               ; preds = %35
  %37 = load i32, ptr %6, align 4, !tbaa !4
  %38 = add nsw i32 %37, 1
  store i32 %38, ptr %6, align 4, !tbaa !4
  br label %7, !llvm.loop !28

39:                                               ; preds = %34, %31, %7
  %40 = load i32, ptr %6, align 4, !tbaa !4
  %41 = icmp sgt i32 %40, 0
  br i1 %41, label %42, label %59

42:                                               ; preds = %39
  %43 = load i32, ptr %4, align 4, !tbaa !4
  %44 = zext i32 %43 to i64
  %45 = getelementptr inbounds nuw [256 x %union.pthread_mutex_t], ptr @lru_locks, i64 0, i64 %44
  %46 = call i32 @pthread_mutex_lock(ptr noundef %45) #9
  %47 = load i32, ptr %6, align 4, !tbaa !4
  %48 = sext i32 %47 to i64
  %49 = load i32, ptr %4, align 4, !tbaa !4
  %50 = zext i32 %49 to i64
  %51 = getelementptr inbounds nuw [256 x %struct.itemstats_t], ptr @itemstats, i64 0, i64 %50
  %52 = getelementptr inbounds nuw %struct.itemstats_t, ptr %51, i32 0, i32 14
  %53 = load i64, ptr %52, align 8, !tbaa !29
  %54 = add i64 %53, %48
  store i64 %54, ptr %52, align 8, !tbaa !29
  %55 = load i32, ptr %4, align 4, !tbaa !4
  %56 = zext i32 %55 to i64
  %57 = getelementptr inbounds nuw [256 x %union.pthread_mutex_t], ptr @lru_locks, i64 0, i64 %56
  %58 = call i32 @pthread_mutex_unlock(ptr noundef %57) #9
  br label %59

59:                                               ; preds = %42, %39
  %60 = load ptr, ptr %5, align 8, !tbaa !16
  call void @llvm.lifetime.end.p0(i64 4, ptr %6) #9
  call void @llvm.lifetime.end.p0(i64 8, ptr %5) #9
  ret ptr %60
}