; Function Attrs: nounwind uwtable
define dso_local ptr @do_item_alloc_pull(i64 %0, i32 noundef %1) local_unnamed_addr #0 {
  br label %3

3:                                                ; preds = %2, %19
  %.021 = phi i32 [ 0, %2 ], [ %20, %19 ]
  %4 = load i8, ptr getelementptr inbounds nuw (i8, ptr @settings, i64 136), align 8, !tbaa !23, !range !24, !noundef !25
  %5 = trunc nuw i8 %4 to i1
  br i1 %5, label %8, label %6

6:                                                ; preds = %3
  %7 = tail call i32 @lru_pull_tail(i32 noundef %1, i32 noundef 128, i64 noundef 0, i8 noundef zeroext 0, i32 noundef 0, ptr noundef null)
  br label %8

8:                                                ; preds = %6, %3
  %9 = tail call ptr @slabs_alloc(i32 noundef %1, i32 noundef 0) #19
  %10 = icmp eq ptr %9, null
  br i1 %10, label %11, label %21

11:                                               ; preds = %8
  %12 = tail call i32 @lru_pull_tail(i32 noundef %1, i32 noundef 128, i64 noundef 0, i8 noundef zeroext 1, i32 noundef 0, ptr noundef null)
  %13 = icmp slt i32 %12, 1
  br i1 %13, label %14, label %19

14:                                               ; preds = %11
  %15 = load i8, ptr getelementptr inbounds nuw (i8, ptr @settings, i64 136), align 8, !tbaa !23, !range !24, !noundef !25
  %16 = trunc nuw i8 %15 to i1
  br i1 %16, label %17, label %21

17:                                               ; preds = %14
  %18 = tail call i32 @lru_pull_tail(i32 noundef %1, i32 noundef 0, i64 noundef 0, i8 noundef zeroext 0, i32 noundef 0, ptr noundef null)
  br label %19

19:                                               ; preds = %17, %11
  %20 = add nuw nsw i32 %.021, 1
  %exitcond.not = icmp eq i32 %20, 10
  br i1 %exitcond.not, label %.thread, label %3, !llvm.loop !26

21:                                               ; preds = %8, %14
  %.not = icmp eq i32 %.021, 0
  br i1 %.not, label %30, label %.thread

.thread:                                          ; preds = %19, %21
  %.020 = phi i32 [ %.021, %21 ], [ 10, %19 ]
  %.117 = phi ptr [ %9, %21 ], [ null, %19 ]
  %22 = zext i32 %1 to i64
  %23 = getelementptr inbounds nuw [256 x %union.pthread_mutex_t], ptr @lru_locks, i64 0, i64 %22
  %24 = tail call i32 @pthread_mutex_lock(ptr noundef nonnull %23) #19
  %25 = zext nneg i32 %.020 to i64
  %26 = getelementptr inbounds nuw [256 x %struct.itemstats_t], ptr @itemstats, i64 0, i64 %22, i32 14
  %27 = load i64, ptr %26, align 8, !tbaa !27
  %28 = add i64 %27, %25
  store i64 %28, ptr %26, align 8, !tbaa !27
  %29 = tail call i32 @pthread_mutex_unlock(ptr noundef nonnull %23) #19
  br label %30

30:                                               ; preds = %.thread, %21
  %.118 = phi ptr [ %.117, %.thread ], [ %9, %21 ]
  ret ptr %.118
}